target datalayout = "e-m:e-p270:32:32-p271:32:32-p272:64:64-i64:64-i128:128-f80:128-n8:16:32:64-S128"
target triple = "x86_64-pc-linux-gnu"

%class.RarTime = type { i64 }

; Function Attrs: mustprogress nounwind uwtable
define void @_ZN7RarTime9SetUnixNSEm(ptr noundef nonnull align 8 dereferenceable(8) %0, i64 noundef %1) #3 align 2 {
  %3 = alloca ptr, align 8
  %4 = alloca i64, align 8
  %5 = alloca i64, align 8
  store ptr %0, ptr %3, align 8, !tbaa !3
  store i64 %1, ptr %4, align 8, !tbaa !10
  %6 = load ptr, ptr %3, align 8
  call void @llvm.lifetime.start.p0(i64 8, ptr %5) #6
  store i64 -6802270473709551616, ptr %5, align 8, !tbaa !10
  %7 = load i64, ptr %4, align 8, !tbaa !10
  %8 = load i64, ptr %5, align 8, !tbaa !10
  %9 = add i64 %7, %8
  %10 = udiv i64 %9, 1
  %11 = getelementptr inbounds nuw %class.RarTime, ptr %6, i32 0, i32 0
  store i64 %10, ptr %11, align 8, !tbaa !34
  call void @llvm.lifetime.end.p0(i64 8, ptr %5) #6
  ret void
}

; Function Attrs: mustprogress uwtable
define void @_ZN7RarTime7SetUnixEl(ptr noundef nonnull align 8 dereferenceable(8) %0, i64 noundef %1) #0 align 2 {
  %3 = alloca ptr, align 8
  %4 = alloca i64, align 8
  store ptr %0, ptr %3, align 8, !tbaa !3
  store i64 %1, ptr %4, align 8, !tbaa !10
  %5 = load ptr, ptr %3, align 8
  %6 = load i64, ptr %4, align 8, !tbaa !10
  %7 = mul i64 %6, 1000000000
  call void @_ZN7RarTime9SetUnixNSEm(ptr noundef nonnull align 8 dereferenceable(8) %5, i64 noundef %7)
  ret void
}

; Function Attrs: mustprogress uwtable
define void @_ZN7RarTime14SetCurrentTimeEv(ptr noundef nonnull align 8 dereferenceable(8) %0) #0 align 2 {
  %2 = alloca ptr, align 8
  %3 = alloca i64, align 8
  store ptr %0, ptr %2, align 8, !tbaa !3
  %4 = load ptr, ptr %2, align 8
  call void @llvm.lifetime.start.p0(i64 8, ptr %3) #6
  %5 = call i64 @time(ptr noundef %3) #6
  %6 = load i64, ptr %3, align 8, !tbaa !10
  call void @_ZN7RarTime7SetUnixEl(ptr noundef nonnull align 8 dereferenceable(8) %4, i64 noundef %6)
  call void @llvm.lifetime.end.p0(i64 8, ptr %3) #6
  ret void
}

; Function Attrs: mustprogress uwtable
define void @_ZN7RarTime10SetAgeTextEPKw(ptr noundef nonnull align 8 dereferenceable(8) %0, ptr noundef %1) #0 align 2 {
  %3 = alloca ptr, align 8
  %4 = alloca ptr, align 8
  %5 = alloca i32, align 4
  %6 = alloca i32, align 4
  %7 = alloca i32, align 4
  %8 = alloca i32, align 4
  store ptr %0, ptr %3, align 8, !tbaa !3
  store ptr %1, ptr %4, align 8, !tbaa !39
  %9 = load ptr, ptr %3, align 8
  call void @llvm.lifetime.start.p0(i64 4, ptr %5) #6
  store i32 0, ptr %5, align 4, !tbaa !38
  call void @llvm.lifetime.start.p0(i64 4, ptr %6) #6
  store i32 0, ptr %6, align 4, !tbaa !38
  call void @llvm.lifetime.start.p0(i64 4, ptr %7) #6
  store i32 0, ptr %7, align 4, !tbaa !38
  br label %10

10:                                               ; preds = %57, %2
  %11 = load ptr, ptr %4, align 8, !tbaa !39
  %12 = load i32, ptr %7, align 4, !tbaa !38
  %13 = zext i32 %12 to i64
  %14 = getelementptr inbounds nuw i32, ptr %11, i64 %13
  %15 = load i32, ptr %14, align 4, !tbaa !45
  %16 = icmp ne i32 %15, 0
  br i1 %16, label %18, label %17

17:                                               ; preds = %10
  call void @llvm.lifetime.end.p0(i64 4, ptr %7) #6
  br label %60

18:                                               ; preds = %10
  call void @llvm.lifetime.start.p0(i64 4, ptr %8) #6
  %19 = load ptr, ptr %4, align 8, !tbaa !39
  %20 = load i32, ptr %7, align 4, !tbaa !38
  %21 = zext i32 %20 to i64
  %22 = getelementptr inbounds nuw i32, ptr %19, i64 %21
  %23 = load i32, ptr %22, align 4, !tbaa !45
  store i32 %23, ptr %8, align 4, !tbaa !45
  %24 = load i32, ptr %8, align 4, !tbaa !45
  %25 = call noundef zeroext i1 @_Z7IsDigiti(i32 noundef %24)
  br i1 %25, label %26, label %32

26:                                               ; preds = %18
  %27 = load i32, ptr %6, align 4, !tbaa !38
  %28 = mul i32 %27, 10
  %29 = load i32, ptr %8, align 4, !tbaa !45
  %30 = add i32 %28, %29
  %31 = sub i32 %30, 48
  store i32 %31, ptr %6, align 4, !tbaa !38
  br label %56

32:                                               ; preds = %18
  %33 = load i32, ptr %8, align 4, !tbaa !45
  %34 = call noundef signext i32 @_Z9etoupperww(i32 noundef signext %33)
  switch i32 %34, label %55 [
    i32 68, label %35
    i32 72, label %41
    i32 77, label %46
    i32 83, label %51
  ]

35:                                               ; preds = %32
  %36 = load i32, ptr %6, align 4, !tbaa !38
  %37 = mul i32 %36, 24
  %38 = mul i32 %37, 3600
  %39 = load i32, ptr %5, align 4, !tbaa !38
  %40 = add i32 %39, %38
  store i32 %40, ptr %5, align 4, !tbaa !38
  br label %55

41:                                               ; preds = %32
  %42 = load i32, ptr %6, align 4, !tbaa !38
  %43 = mul i32 %42, 3600
  %44 = load i32, ptr %5, align 4, !tbaa !38
  %45 = add i32 %44, %43
  store i32 %45, ptr %5, align 4, !tbaa !38
  br label %55

46:                                               ; preds = %32
  %47 = load i32, ptr %6, align 4, !tbaa !38
  %48 = mul i32 %47, 60
  %49 = load i32, ptr %5, align 4, !tbaa !38
  %50 = add i32 %49, %48
  store i32 %50, ptr %5, align 4, !tbaa !38
  br label %55

51:                                               ; preds = %32
  %52 = load i32, ptr %6, align 4, !tbaa !38
  %53 = load i32, ptr %5, align 4, !tbaa !38
  %54 = add i32 %53, %52
  store i32 %54, ptr %5, align 4, !tbaa !38
  br label %55

55:                                               ; preds = %32, %51, %46, %41, %35
  store i32 0, ptr %6, align 4, !tbaa !38
  br label %56

56:                                               ; preds = %55, %26
  call void @llvm.lifetime.end.p0(i64 4, ptr %8) #6
  br label %57

57:                                               ; preds = %56
  %58 = load i32, ptr %7, align 4, !tbaa !38
  %59 = add i32 %58, 1
  store i32 %59, ptr %7, align 4, !tbaa !38
  br label %10, !llvm.loop !49

60:                                               ; preds = %17
  call void @_ZN7RarTime14SetCurrentTimeEv(ptr noundef nonnull align 8 dereferenceable(8) %9)
  %61 = load i32, ptr %5, align 4, !tbaa !38
  %62 = zext i32 %61 to i64
  %63 = mul i64 %62, 1000000000
  %64 = getelementptr inbounds nuw %class.RarTime, ptr %9, i32 0, i32 0
  %65 = load i64, ptr %64, align 8, !tbaa !34
  %66 = sub i64 %65, %63
  store i64 %66, ptr %64, align 8, !tbaa !34
  call void @llvm.lifetime.end.p0(i64 4, ptr %6) #6
  call void @llvm.lifetime.end.p0(i64 4, ptr %5) #6
  ret void
}