; Function Attrs: mustprogress uwtable
define void @_ZN7RarTime10SetAgeTextEPKw(ptr noundef nonnull writeonly align 8 captures(none) dereferenceable(8) %0, ptr noundef readonly captures(none) %1) local_unnamed_addr #7 align 2 {
  %3 = alloca i64, align 8
  %4 = load i32, ptr %1, align 4, !tbaa !32
  %.not22 = icmp eq i32 %4, 0
  br i1 %.not22, label %._crit_edge, label %.lr.ph

._crit_edge.loopexit:                             ; preds = %31
  %5 = zext i32 %.1 to i64
  %6 = mul nsw i64 %5, -1000000000
  br label %._crit_edge

._crit_edge:                                      ; preds = %._crit_edge.loopexit, %2
  %.0.lcssa = phi i64 [ 0, %2 ], [ %6, %._crit_edge.loopexit ]
  call void @llvm.lifetime.start.p0(i64 8, ptr nonnull %3) #13
  %7 = call i64 @time(ptr noundef nonnull %3) #13
  %8 = load i64, ptr %3, align 8, !tbaa !8
  %9 = mul i64 %8, 1000000000
  %10 = add i64 %9, -6802270473709551616
  call void @llvm.lifetime.end.p0(i64 8, ptr nonnull %3) #13
  %11 = add i64 %10, %.0.lcssa
  store i64 %11, ptr %0, align 8, !tbaa !3
  ret void

.lr.ph:                                           ; preds = %2, %31
  %12 = phi i32 [ %35, %31 ], [ %4, %2 ]
  %.025 = phi i32 [ %.1, %31 ], [ 0, %2 ]
  %.01824 = phi i32 [ %32, %31 ], [ 0, %2 ]
  %.01923 = phi i32 [ %.120, %31 ], [ 0, %2 ]
  %13 = tail call noundef zeroext i1 @_Z7IsDigiti(i32 noundef %12)
  br i1 %13, label %14, label %18

14:                                               ; preds = %.lr.ph
  %15 = mul i32 %.01923, 10
  %16 = add i32 %15, -48
  %17 = add i32 %16, %12
  br label %31

18:                                               ; preds = %.lr.ph
  %19 = tail call noundef signext i32 @_Z9etoupperww(i32 noundef signext %12)
  switch i32 %19, label %31 [
    i32 68, label %20
    i32 72, label %23
    i32 77, label %26
    i32 83, label %29
  ]

20:                                               ; preds = %18
  %21 = mul i32 %.01923, 86400
  %22 = add i32 %.025, %21
  br label %31

23:                                               ; preds = %18
  %24 = mul i32 %.01923, 3600
  %25 = add i32 %.025, %24
  br label %31

26:                                               ; preds = %18
  %27 = mul i32 %.01923, 60
  %28 = add i32 %.025, %27
  br label %31

29:                                               ; preds = %18
  %30 = add i32 %.025, %.01923
  br label %31

31:                                               ; preds = %18, %20, %23, %26, %29, %14
  %.120 = phi i32 [ %17, %14 ], [ 0, %29 ], [ 0, %26 ], [ 0, %23 ], [ 0, %20 ], [ 0, %18 ]
  %.1 = phi i32 [ %.025, %14 ], [ %30, %29 ], [ %28, %26 ], [ %25, %23 ], [ %22, %20 ], [ %.025, %18 ]
  %32 = add i32 %.01824, 1
  %33 = zext i32 %32 to i64
  %34 = getelementptr inbounds nuw i32, ptr %1, i64 %33
  %35 = load i32, ptr %34, align 4, !tbaa !32
  %.not = icmp eq i32 %35, 0
  br i1 %.not, label %._crit_edge.loopexit, label %.lr.ph, !llvm.loop !37
}